

Microchip MPLAB XC8 Assembler V2.40 build 20220703182018 
                                                                                               Sat Dec 17 15:17:57 2022

Microchip MPLAB XC8 C Compiler v2.40 (Free license) build 20220703182018 Og1 
     1                           	processor	18F4520
     2                           	fnconf	rparam,??,?,0
     3                           	pagewidth 120
     4                           	opt	flic
     5                           	psect	idataCOMRAM,global,class=CODE,delta=1,noexec
     6                           	psect	smallconst,global,reloc=2,class=SMALLCONST,delta=1,noexec
     7                           	psect	cinit,global,reloc=2,class=CODE,delta=1
     8                           	psect	dataCOMRAM,global,class=COMRAM,space=1,delta=1,lowdata,noexec
     9                           	psect	cstackCOMRAM,global,class=COMRAM,space=1,delta=1,lowdata,noexec
    10                           	psect	text0,global,reloc=2,class=CODE,delta=1
    11                           	psect	text1,global,reloc=2,class=CODE,delta=1
    12                           	psect	text2,global,reloc=2,class=CODE,delta=1
    13                           	psect	text3,global,reloc=2,class=CODE,delta=1
    14                           	psect	text4,global,reloc=2,class=CODE,delta=1
    15                           	psect	text5,global,reloc=2,class=CODE,delta=1
    16                           	psect	text6,global,reloc=2,class=CODE,delta=1
    17                           	psect	text7,global,reloc=2,class=CODE,delta=1
    18                           	psect	intsave_regs,global,class=BIGRAM,space=1,delta=1,noexec
    19                           	psect	rparam,global,class=COMRAM,space=1,delta=1,noexec
    20                           	psect	idloc,global,abs,ovrld,class=IDLOC,space=5,delta=1,noexec
    21                           	psect	config,global,abs,ovrld,class=CONFIG,space=4,delta=1,noexec
    22   000000                     
    23                           ; Version 2.40
    24                           ; Generated 17/11/2021 GMT
    25                           ; 
    26                           ; Copyright © 2021, Microchip Technology Inc. and its subsidiaries ("Microchip")
    27                           ; All rights reserved.
    28                           ; 
    29                           ; This software is developed by Microchip Technology Inc. and its subsidiaries ("Microch
      +                          ip").
    30                           ; 
    31                           ; Redistribution and use in source and binary forms, with or without modification, are
    32                           ; permitted provided that the following conditions are met:
    33                           ; 
    34                           ;     1. Redistributions of source code must retain the above copyright notice, this lis
      +                          t of
    35                           ;        conditions and the following disclaimer.
    36                           ; 
    37                           ;     2. Redistributions in binary form must reproduce the above copyright notice, this 
      +                          list
    38                           ;        of conditions and the following disclaimer in the documentation and/or other
    39                           ;        materials provided with the distribution. Publication is not required when
    40                           ;        this file is used in an embedded application.
    41                           ; 
    42                           ;     3. Microchip's name may not be used to endorse or promote products derived from th
      +                          is
    43                           ;        software without specific prior written permission.
    44                           ; 
    45                           ; THIS SOFTWARE IS PROVIDED BY MICROCHIP "AS IS" AND ANY EXPRESS OR IMPLIED WARRANTIES,
    46                           ; INCLUDING, BUT NOT LIMITED TO, THE IMPLIED WARRANTIES OF MERCHANTABILITY AND FITNESS F
      +                          OR
    47                           ; PURPOSE ARE DISCLAIMED.  IN NO EVENT SHALL MICROCHIP BE LIABLE FOR ANY DIRECT, INDIREC
      +                          T,
    48                           ; INCIDENTAL, SPECIAL, EXEMPLARY, OR CONSEQUENTIAL DAMAGES (INCLUDING BUT NOT LIMITED TO
    49                           ; PROCUREMENT OF SUBSTITUTE GOODS OR SERVICES; LOSS OF USE, DATA OR PROFITS; OR BUSINESS
    50                           ; INTERRUPTION) HOWSOEVER CAUSED AND ON ANY THEORY OF LIABILITY, WHETHER IN CONTRACT, ST
      +                          RICT
    51                           ; LIABILITY, OR TORT (INCLUDING NEGLIGENCE OR OTHERWISE) ARISING IN ANY WAY OUT OF THE U
      +                          SE OF
    52                           ; THIS SOFTWARE, EVEN IF ADVISED OF THE POSSIBILITY OF SUCH DAMAGE.
    53                           ; 
    54                           ; 
    55                           ; Code-generator required, PIC18F4520 Definitions
    56                           ; 
    57                           ; SFR Addresses
    58   000000                     
    59                           	psect	idataCOMRAM
    60   000974                     __pidataCOMRAM:
    61                           	callstack 0
    62                           
    63                           ;initializer for _KeyVal
    64   000974  4E                 	db	78
    65   000975  31                 	db	49
    66   000976  32                 	db	50
    67   000977  33                 	db	51
    68   000978  34                 	db	52
    69   000979  35                 	db	53
    70   00097A  36                 	db	54
    71   00097B  37                 	db	55
    72   00097C  38                 	db	56
    73   00097D  39                 	db	57
    74   00097E  41                 	db	65
    75   00097F  42                 	db	66
    76   000980  43                 	db	67
    77                           
    78                           	psect	smallconst
    79   000600                     __psmallconst:
    80                           	callstack 0
    81   000600  00                 	db	0
    82   000601                     _msg2:
    83                           	callstack 0
    84   000601  4B                 	db	75
    85   000602  65                 	db	101
    86   000603  79                 	db	121
    87   000604  20                 	db	32
    88   000605  70                 	db	112
    89   000606  72                 	db	114
    90   000607  65                 	db	101
    91   000608  73                 	db	115
    92   000609  73                 	db	115
    93   00060A  65                 	db	101
    94   00060B  64                 	db	100
    95   00060C  20                 	db	32
    96   00060D  3A                 	db	58
    97   00060E  20                 	db	32
    98   00060F  00                 	db	0
    99   000610                     __end_of_msg2:
   100                           	callstack 0
   101   000610                     _msg1:
   102                           	callstack 0
   103   000610  4D                 	db	77
   104   000611  61                 	db	97
   105   000612  74                 	db	116
   106   000613  72                 	db	114
   107   000614  69                 	db	105
   108   000615  78                 	db	120
   109   000616  20                 	db	32
   110   000617  4B                 	db	75
   111   000618  65                 	db	101
   112   000619  79                 	db	121
   113   00061A  70                 	db	112
   114   00061B  61                 	db	97
   115   00061C  64                 	db	100
   116   00061D  00                 	db	0
   117   00061E                     __end_of_msg1:
   118                           	callstack 0
   119   000000                     _PORTB	set	3969
   120   000000                     _LATB	set	3978
   121   000000                     _LATCbits	set	3979
   122   000000                     _LATD	set	3980
   123   000000                     _TRISCbits	set	3988
   124   000000                     _TRISD	set	3989
   125   000000                     _ADCON1	set	4033
   126   000000                     _TRISB	set	3987
   127   000000                     _INTCON2bits	set	4081
   128   00061E  00                 	db	0	; dummy byte at the end
   129   000000                     
   130                           ; #config settings
   131                           
   132                           	psect	cinit
   133   00090A                     __pcinit:
   134                           	callstack 0
   135   00090A                     start_initialization:
   136                           	callstack 0
   137   00090A                     __initialization:
   138                           	callstack 0
   139                           
   140                           ; Initialize objects allocated to COMRAM (13 bytes)
   141                           ; load TBLPTR registers with __pidataCOMRAM
   142   00090A  0E74               	movlw	low __pidataCOMRAM
   143   00090C  6EF6               	movwf	tblptrl,c
   144   00090E  0E09               	movlw	high __pidataCOMRAM
   145   000910  6EF7               	movwf	tblptrh,c
   146   000912  0E00               	movlw	low (__pidataCOMRAM shr (0+16))
   147   000914  6EF8               	movwf	tblptru,c
   148   000916  EE00  F001         	lfsr	0,__pdataCOMRAM
   149   00091A  EE10 F00D          	lfsr	1,13
   150   00091E                     copy_data0:
   151   00091E  0009               	tblrd		*+
   152   000920  CFF5 FFEE          	movff	tablat,postinc0
   153   000924  50E5               	movf	postdec1,w,c
   154   000926  50E1               	movf	fsr1l,w,c
   155   000928  E1FA               	bnz	copy_data0
   156   00092A                     end_of_initialization:
   157                           	callstack 0
   158   00092A                     __end_of__initialization:
   159                           	callstack 0
   160   00092A  0E00               	movlw	low (__Lsmallconst shr (0+16))
   161   00092C  6EF8               	movwf	tblptru,c
   162   00092E  0E06               	movlw	high __Lsmallconst
   163   000930  6EF7               	movwf	tblptrh,c
   164   000932  0100               	movlb	0
   165   000934  EF42  F004         	goto	_main	;jump to C main() function
   166                           
   167                           	psect	dataCOMRAM
   168   000001                     __pdataCOMRAM:
   169                           	callstack 0
   170   000001                     _KeyVal:
   171                           	callstack 0
   172   000001                     	ds	13
   173                           
   174                           	psect	cstackCOMRAM
   175   00000E                     __pcstackCOMRAM:
   176                           	callstack 0
   177   00000E                     ??_LCD_Command:
   178   00000E                     ??_LCD_Data:
   179   00000E                     Keypad_Scan@button:
   180                           	callstack 0
   181                           
   182                           ; 1 bytes @ 0x0
   183   00000E                     	ds	1
   184   00000F                     ??_Get_Key:
   185   00000F                     LCD_Command@cmd:
   186                           	callstack 0
   187   00000F                     LCD_Data@data:
   188                           	callstack 0
   189                           
   190                           ; 1 bytes @ 0x1
   191   00000F                     	ds	1
   192   000010                     ??_LCD_Init:
   193   000010                     LCD_ROM_String@str:
   194                           	callstack 0
   195                           
   196                           ; 2 bytes @ 0x2
   197   000010                     	ds	1
   198   000011                     Get_Key@Key:
   199                           	callstack 0
   200                           
   201                           ; 1 bytes @ 0x3
   202   000011                     	ds	1
   203   000012                     ??_LCD_ROM_String:
   204   000012                     Get_Key@but1:
   205                           	callstack 0
   206                           
   207                           ; 1 bytes @ 0x4
   208   000012                     	ds	2
   209   000014                     LCD_ROM_String@i:
   210                           	callstack 0
   211                           
   212                           ; 2 bytes @ 0x6
   213   000014                     	ds	2
   214   000016                     main@Key:
   215                           	callstack 0
   216                           
   217                           ; 1 bytes @ 0x8
   218   000016                     	ds	1
   219                           
   220 ;;
   221 ;;Main: autosize = 0, tempsize = 0, incstack = 0, save=0
   222 ;;
   223 ;; *************** function _main *****************
   224 ;; Defined at:
   225 ;;		line 10 in file "matrix_keypad.c"
   226 ;; Parameters:    Size  Location     Type
   227 ;;		None
   228 ;; Auto vars:     Size  Location     Type
   229 ;;  Key             1    8[COMRAM] unsigned char 
   230 ;; Return value:  Size  Location     Type
   231 ;;                  1    wreg      void 
   232 ;; Registers used:
   233 ;;		wreg, fsr2l, fsr2h, status,2, status,0, tblptrl, tblptrh, tblptru, cstack
   234 ;; Tracked objects:
   235 ;;		On entry : 0/0
   236 ;;		On exit  : 0/0
   237 ;;		Unchanged: 0/0
   238 ;; Data sizes:     COMRAM   BANK0   BANK1   BANK2   BANK3   BANK4   BANK5
   239 ;;      Params:         0       0       0       0       0       0       0
   240 ;;      Locals:         1       0       0       0       0       0       0
   241 ;;      Temps:          0       0       0       0       0       0       0
   242 ;;      Totals:         1       0       0       0       0       0       0
   243 ;;Total ram usage:        1 bytes
   244 ;; Hardware stack levels required when called: 2
   245 ;; This function calls:
   246 ;;		_Get_Key
   247 ;;		_Keypad_Init
   248 ;;		_LCD_Command
   249 ;;		_LCD_Data
   250 ;;		_LCD_Init
   251 ;;		_LCD_ROM_String
   252 ;; This function is called by:
   253 ;;		Startup code after reset
   254 ;; This function uses a non-reentrant model
   255 ;;
   256                           
   257                           	psect	text0
   258   000884                     __ptext0:
   259                           	callstack 0
   260   000884                     _main:
   261                           	callstack 29
   262   000884                     
   263                           ;matrix_keypad.c: 12:     unsigned char Key;;matrix_keypad.c: 13:     LCD_Init();
   264   000884  ECD8  F003         	call	_LCD_Init	;wreg free
   265                           
   266                           ;matrix_keypad.c: 14:     Keypad_Init();
   267   000888  ECC1  F004         	call	_Keypad_Init	;wreg free
   268   00088C                     
   269                           ;matrix_keypad.c: 15:     LCD_ROM_String(msg1);
   270   00088C  0E10               	movlw	low _msg1
   271   00088E  6E10               	movwf	LCD_ROM_String@str^0,c
   272   000890  0E06               	movlw	high _msg1
   273   000892  6E11               	movwf	(LCD_ROM_String@str+1)^0,c
   274   000894  EC10  F004         	call	_LCD_ROM_String	;wreg free
   275   000898                     
   276                           ;matrix_keypad.c: 16:     LCD_Command(0xC0);
   277   000898  0EC0               	movlw	192
   278   00089A  ECAB  F004         	call	_LCD_Command
   279                           
   280                           ;matrix_keypad.c: 17:     LCD_ROM_String(msg2);
   281   00089E  0E01               	movlw	low _msg2
   282   0008A0  6E10               	movwf	LCD_ROM_String@str^0,c
   283   0008A2  0E06               	movlw	high _msg2
   284   0008A4  6E11               	movwf	(LCD_ROM_String@str+1)^0,c
   285   0008A6  EC10  F004         	call	_LCD_ROM_String	;wreg free
   286   0008AA                     l978:
   287   0008AA  EC6B  F004         	call	_Get_Key	;wreg free
   288   0008AE  6E16               	movwf	main@Key^0,c
   289   0008B0  0E4E               	movlw	78
   290   0008B2  1816               	xorwf	main@Key^0,w,c
   291   0008B4  B4D8               	btfsc	status,2,c
   292   0008B6  EF5F  F004         	goto	u201
   293   0008BA  EF61  F004         	goto	u200
   294   0008BE                     u201:
   295   0008BE  EF55  F004         	goto	l978
   296   0008C2                     u200:
   297   0008C2                     
   298                           ;matrix_keypad.c: 26:         LCD_Command(0xCD);
   299   0008C2  0ECD               	movlw	205
   300   0008C4  ECAB  F004         	call	_LCD_Command
   301                           
   302                           ;matrix_keypad.c: 27:         LCD_Data(Key);
   303   0008C8  5016               	movf	main@Key^0,w,c
   304   0008CA  EC9C  F004         	call	_LCD_Data
   305   0008CE  EF55  F004         	goto	l978
   306   0008D2  EF00  F000         	goto	start
   307   0008D6                     __end_of_main:
   308                           	callstack 0
   309                           
   310 ;; *************** function _LCD_ROM_String *****************
   311 ;; Defined at:
   312 ;;		line 63 in file "../PIC18F_Library/LCD.c"
   313 ;; Parameters:    Size  Location     Type
   314 ;;  str             2    2[COMRAM] PTR const unsigned char 
   315 ;;		 -> msg2(15), msg1(14), 
   316 ;; Auto vars:     Size  Location     Type
   317 ;;  i               2    6[COMRAM] int 
   318 ;; Return value:  Size  Location     Type
   319 ;;                  1    wreg      void 
   320 ;; Registers used:
   321 ;;		wreg, status,2, status,0, tblptrl, tblptrh, tblptru, cstack
   322 ;; Tracked objects:
   323 ;;		On entry : 0/0
   324 ;;		On exit  : 0/0
   325 ;;		Unchanged: 0/0
   326 ;; Data sizes:     COMRAM   BANK0   BANK1   BANK2   BANK3   BANK4   BANK5
   327 ;;      Params:         2       0       0       0       0       0       0
   328 ;;      Locals:         2       0       0       0       0       0       0
   329 ;;      Temps:          2       0       0       0       0       0       0
   330 ;;      Totals:         6       0       0       0       0       0       0
   331 ;;Total ram usage:        6 bytes
   332 ;; Hardware stack levels used: 1
   333 ;; Hardware stack levels required when called: 1
   334 ;; This function calls:
   335 ;;		_LCD_Data
   336 ;; This function is called by:
   337 ;;		_main
   338 ;; This function uses a non-reentrant model
   339 ;;
   340                           
   341                           	psect	text1
   342   000820                     __ptext1:
   343                           	callstack 0
   344   000820                     _LCD_ROM_String:
   345                           	callstack 29
   346   000820                     
   347                           ;../PIC18F_Library/LCD.c: 63: void LCD_ROM_String(const char *str);../PIC18F_Library/LCD
      +                          .c: 64: {;../PIC18F_Library/LCD.c: 65:     int i = 0;
   348   000820  0E00               	movlw	0
   349   000822  6E15               	movwf	(LCD_ROM_String@i+1)^0,c
   350   000824  0E00               	movlw	0
   351   000826  6E14               	movwf	LCD_ROM_String@i^0,c
   352                           
   353                           ;../PIC18F_Library/LCD.c: 66:     while (str[i] != 0)
   354   000828  EF2D  F004         	goto	l970
   355   00082C                     l964:
   356                           
   357                           ;../PIC18F_Library/LCD.c: 67:     {;../PIC18F_Library/LCD.c: 68:         LCD_Data(str[i]
      +                          );
   358   00082C  5014               	movf	LCD_ROM_String@i^0,w,c
   359   00082E  2410               	addwf	LCD_ROM_String@str^0,w,c
   360   000830  6E12               	movwf	??_LCD_ROM_String^0,c
   361   000832  5015               	movf	(LCD_ROM_String@i+1)^0,w,c
   362   000834  2011               	addwfc	(LCD_ROM_String@str+1)^0,w,c
   363   000836  6E13               	movwf	(??_LCD_ROM_String+1)^0,c
   364   000838  C012  FFF6         	movff	??_LCD_ROM_String,tblptrl
   365   00083C  C013  FFF7         	movff	??_LCD_ROM_String+1,tblptrh
   366   000840                     	if	0	;tblptru may be non-zero
   367   000840                     	endif
   368   000840                     	if	0	;tblptru may be non-zero
   369   000840                     	endif
   370   000840  0008               	tblrd		*
   371   000842  50F5               	movf	tablat,w,c
   372   000844  EC9C  F004         	call	_LCD_Data
   373   000848                     
   374                           ;../PIC18F_Library/LCD.c: 69:         _delay((unsigned long)((15)*(20000000/4000.0)));
   375   000848  0E62               	movlw	98
   376   00084A  6E12               	movwf	??_LCD_ROM_String^0,c
   377   00084C  0E66               	movlw	102
   378   00084E                     u217:
   379   00084E  2EE8               	decfsz	wreg,f,c
   380   000850  D7FE               	bra	u217
   381   000852  2E12               	decfsz	??_LCD_ROM_String^0,f,c
   382   000854  D7FC               	bra	u217
   383   000856                     
   384                           ;../PIC18F_Library/LCD.c: 70:         i++;
   385   000856  4A14               	infsnz	LCD_ROM_String@i^0,f,c
   386   000858  2A15               	incf	(LCD_ROM_String@i+1)^0,f,c
   387   00085A                     l970:
   388                           
   389                           ;../PIC18F_Library/LCD.c: 66:     while (str[i] != 0)
   390   00085A  5014               	movf	LCD_ROM_String@i^0,w,c
   391   00085C  2410               	addwf	LCD_ROM_String@str^0,w,c
   392   00085E  6E12               	movwf	??_LCD_ROM_String^0,c
   393   000860  5015               	movf	(LCD_ROM_String@i+1)^0,w,c
   394   000862  2011               	addwfc	(LCD_ROM_String@str+1)^0,w,c
   395   000864  6E13               	movwf	(??_LCD_ROM_String+1)^0,c
   396   000866  C012  FFF6         	movff	??_LCD_ROM_String,tblptrl
   397   00086A  C013  FFF7         	movff	??_LCD_ROM_String+1,tblptrh
   398   00086E                     	if	0	;tblptru may be non-zero
   399   00086E                     	endif
   400   00086E                     	if	0	;tblptru may be non-zero
   401   00086E                     	endif
   402   00086E  0008               	tblrd		*
   403   000870  50F5               	movf	tablat,w,c
   404   000872  0900               	iorlw	0
   405   000874  A4D8               	btfss	status,2,c
   406   000876  EF3F  F004         	goto	u191
   407   00087A  EF41  F004         	goto	u190
   408   00087E                     u191:
   409   00087E  EF16  F004         	goto	l964
   410   000882                     u190:
   411   000882  0012               	return		;funcret
   412   000884                     __end_of_LCD_ROM_String:
   413                           	callstack 0
   414                           
   415 ;; *************** function _LCD_Data *****************
   416 ;; Defined at:
   417 ;;		line 42 in file "../PIC18F_Library/LCD.c"
   418 ;; Parameters:    Size  Location     Type
   419 ;;  data            1    wreg     unsigned char 
   420 ;; Auto vars:     Size  Location     Type
   421 ;;  data            1    1[COMRAM] unsigned char 
   422 ;; Return value:  Size  Location     Type
   423 ;;                  1    wreg      void 
   424 ;; Registers used:
   425 ;;		wreg, status,2, cstack
   426 ;; Tracked objects:
   427 ;;		On entry : 0/0
   428 ;;		On exit  : 0/0
   429 ;;		Unchanged: 0/0
   430 ;; Data sizes:     COMRAM   BANK0   BANK1   BANK2   BANK3   BANK4   BANK5
   431 ;;      Params:         0       0       0       0       0       0       0
   432 ;;      Locals:         1       0       0       0       0       0       0
   433 ;;      Temps:          1       0       0       0       0       0       0
   434 ;;      Totals:         2       0       0       0       0       0       0
   435 ;;Total ram usage:        2 bytes
   436 ;; Hardware stack levels used: 1
   437 ;; This function calls:
   438 ;;		Nothing
   439 ;; This function is called by:
   440 ;;		_LCD_ROM_String
   441 ;;		_main
   442 ;;		_LCD_RAM_String
   443 ;; This function uses a non-reentrant model
   444 ;;
   445                           
   446                           	psect	text2
   447   000938                     __ptext2:
   448                           	callstack 0
   449   000938                     _LCD_Data:
   450                           	callstack 29
   451                           
   452                           ;incstack = 0
   453                           ;LCD_Data@data stored from wreg
   454   000938  6E0F               	movwf	LCD_Data@data^0,c
   455   00093A                     
   456                           ;../PIC18F_Library/LCD.c: 42: void LCD_Data(unsigned char data);../PIC18F_Library/LCD.c:
      +                           43: {;../PIC18F_Library/LCD.c: 44:     LATD = data;
   457   00093A  C00F  FF8C         	movff	LCD_Data@data,3980	;volatile
   458   00093E                     
   459                           ;../PIC18F_Library/LCD.c: 45:     LATCbits.LATC1 = 1;
   460   00093E  828B               	bsf	139,1,c	;volatile
   461   000940                     
   462                           ;../PIC18F_Library/LCD.c: 46:     LATCbits.LATC0 = 0;
   463   000940  908B               	bcf	139,0,c	;volatile
   464   000942                     
   465                           ;../PIC18F_Library/LCD.c: 47:     LATCbits.LATC2 = 1;
   466   000942  848B               	bsf	139,2,c	;volatile
   467   000944                     
   468                           ;../PIC18F_Library/LCD.c: 48:    _delay((unsigned long)((15)*(20000000/4000.0)));
   469   000944  0E62               	movlw	98
   470   000946  6E0E               	movwf	??_LCD_Data^0,c
   471   000948  0E66               	movlw	102
   472   00094A                     u227:
   473   00094A  2EE8               	decfsz	wreg,f,c
   474   00094C  D7FE               	bra	u227
   475   00094E  2E0E               	decfsz	??_LCD_Data^0,f,c
   476   000950  D7FC               	bra	u227
   477   000952                     
   478                           ;../PIC18F_Library/LCD.c: 49:     LATCbits.LATC2 = 0;
   479   000952  948B               	bcf	139,2,c	;volatile
   480   000954  0012               	return		;funcret
   481   000956                     __end_of_LCD_Data:
   482                           	callstack 0
   483                           
   484 ;; *************** function _LCD_Init *****************
   485 ;; Defined at:
   486 ;;		line 13 in file "../PIC18F_Library/LCD.c"
   487 ;; Parameters:    Size  Location     Type
   488 ;;		None
   489 ;; Auto vars:     Size  Location     Type
   490 ;;		None
   491 ;; Return value:  Size  Location     Type
   492 ;;                  1    wreg      void 
   493 ;; Registers used:
   494 ;;		wreg, status,2, cstack
   495 ;; Tracked objects:
   496 ;;		On entry : 0/0
   497 ;;		On exit  : 0/0
   498 ;;		Unchanged: 0/0
   499 ;; Data sizes:     COMRAM   BANK0   BANK1   BANK2   BANK3   BANK4   BANK5
   500 ;;      Params:         0       0       0       0       0       0       0
   501 ;;      Locals:         0       0       0       0       0       0       0
   502 ;;      Temps:          1       0       0       0       0       0       0
   503 ;;      Totals:         1       0       0       0       0       0       0
   504 ;;Total ram usage:        1 bytes
   505 ;; Hardware stack levels used: 1
   506 ;; Hardware stack levels required when called: 1
   507 ;; This function calls:
   508 ;;		_LCD_Command
   509 ;; This function is called by:
   510 ;;		_main
   511 ;; This function uses a non-reentrant model
   512 ;;
   513                           
   514                           	psect	text3
   515   0007B0                     __ptext3:
   516                           	callstack 0
   517   0007B0                     _LCD_Init:
   518                           	callstack 29
   519   0007B0                     
   520                           ;../PIC18F_Library/LCD.c: 15:     TRISD = 0;
   521   0007B0  0E00               	movlw	0
   522   0007B2  6E95               	movwf	149,c	;volatile
   523   0007B4                     
   524                           ;../PIC18F_Library/LCD.c: 16:     TRISCbits.RC1 = 0;
   525   0007B4  9294               	bcf	148,1,c	;volatile
   526   0007B6                     
   527                           ;../PIC18F_Library/LCD.c: 17:     TRISCbits.RC0 = 0;
   528   0007B6  9094               	bcf	148,0,c	;volatile
   529   0007B8                     
   530                           ;../PIC18F_Library/LCD.c: 18:     TRISCbits.RC2 = 0;
   531   0007B8  9494               	bcf	148,2,c	;volatile
   532   0007BA                     
   533                           ;../PIC18F_Library/LCD.c: 20:     LCD_Command(0x38);
   534   0007BA  0E38               	movlw	56
   535   0007BC  ECAB  F004         	call	_LCD_Command
   536   0007C0                     
   537                           ;../PIC18F_Library/LCD.c: 21:     _delay((unsigned long)((15)*(20000000/4000.0)));
   538   0007C0  0E62               	movlw	98
   539   0007C2  6E10               	movwf	??_LCD_Init^0,c
   540   0007C4  0E66               	movlw	102
   541   0007C6                     u237:
   542   0007C6  2EE8               	decfsz	wreg,f,c
   543   0007C8  D7FE               	bra	u237
   544   0007CA  2E10               	decfsz	??_LCD_Init^0,f,c
   545   0007CC  D7FC               	bra	u237
   546   0007CE                     
   547                           ;../PIC18F_Library/LCD.c: 22:     LCD_Command(0x06);
   548   0007CE  0E06               	movlw	6
   549   0007D0  ECAB  F004         	call	_LCD_Command
   550   0007D4                     
   551                           ;../PIC18F_Library/LCD.c: 23:     _delay((unsigned long)((15)*(20000000/4000.0)));
   552   0007D4  0E62               	movlw	98
   553   0007D6  6E10               	movwf	??_LCD_Init^0,c
   554   0007D8  0E66               	movlw	102
   555   0007DA                     u247:
   556   0007DA  2EE8               	decfsz	wreg,f,c
   557   0007DC  D7FE               	bra	u247
   558   0007DE  2E10               	decfsz	??_LCD_Init^0,f,c
   559   0007E0  D7FC               	bra	u247
   560   0007E2                     
   561                           ;../PIC18F_Library/LCD.c: 24:     LCD_Command(0x0C);
   562   0007E2  0E0C               	movlw	12
   563   0007E4  ECAB  F004         	call	_LCD_Command
   564   0007E8                     
   565                           ;../PIC18F_Library/LCD.c: 25:     _delay((unsigned long)((15)*(20000000/4000.0)));
   566   0007E8  0E62               	movlw	98
   567   0007EA  6E10               	movwf	??_LCD_Init^0,c
   568   0007EC  0E66               	movlw	102
   569   0007EE                     u257:
   570   0007EE  2EE8               	decfsz	wreg,f,c
   571   0007F0  D7FE               	bra	u257
   572   0007F2  2E10               	decfsz	??_LCD_Init^0,f,c
   573   0007F4  D7FC               	bra	u257
   574   0007F6                     
   575                           ;../PIC18F_Library/LCD.c: 26:     LCD_Command(0x01);
   576   0007F6  0E01               	movlw	1
   577   0007F8  ECAB  F004         	call	_LCD_Command
   578   0007FC                     
   579                           ;../PIC18F_Library/LCD.c: 27:     _delay((unsigned long)((15)*(20000000/4000.0)));
   580   0007FC  0E62               	movlw	98
   581   0007FE  6E10               	movwf	??_LCD_Init^0,c
   582   000800  0E66               	movlw	102
   583   000802                     u267:
   584   000802  2EE8               	decfsz	wreg,f,c
   585   000804  D7FE               	bra	u267
   586   000806  2E10               	decfsz	??_LCD_Init^0,f,c
   587   000808  D7FC               	bra	u267
   588   00080A                     
   589                           ;../PIC18F_Library/LCD.c: 28:     LCD_Command(0x80);
   590   00080A  0E80               	movlw	128
   591   00080C  ECAB  F004         	call	_LCD_Command
   592   000810                     
   593                           ;../PIC18F_Library/LCD.c: 29:     _delay((unsigned long)((15)*(20000000/4000.0)));
   594   000810  0E62               	movlw	98
   595   000812  6E10               	movwf	??_LCD_Init^0,c
   596   000814  0E66               	movlw	102
   597   000816                     u277:
   598   000816  2EE8               	decfsz	wreg,f,c
   599   000818  D7FE               	bra	u277
   600   00081A  2E10               	decfsz	??_LCD_Init^0,f,c
   601   00081C  D7FC               	bra	u277
   602   00081E  0012               	return		;funcret
   603   000820                     __end_of_LCD_Init:
   604                           	callstack 0
   605                           
   606 ;; *************** function _LCD_Command *****************
   607 ;; Defined at:
   608 ;;		line 32 in file "../PIC18F_Library/LCD.c"
   609 ;; Parameters:    Size  Location     Type
   610 ;;  cmd             1    wreg     unsigned char 
   611 ;; Auto vars:     Size  Location     Type
   612 ;;  cmd             1    1[COMRAM] unsigned char 
   613 ;; Return value:  Size  Location     Type
   614 ;;                  1    wreg      void 
   615 ;; Registers used:
   616 ;;		wreg, status,2, cstack
   617 ;; Tracked objects:
   618 ;;		On entry : 0/0
   619 ;;		On exit  : 0/0
   620 ;;		Unchanged: 0/0
   621 ;; Data sizes:     COMRAM   BANK0   BANK1   BANK2   BANK3   BANK4   BANK5
   622 ;;      Params:         0       0       0       0       0       0       0
   623 ;;      Locals:         1       0       0       0       0       0       0
   624 ;;      Temps:          1       0       0       0       0       0       0
   625 ;;      Totals:         2       0       0       0       0       0       0
   626 ;;Total ram usage:        2 bytes
   627 ;; Hardware stack levels used: 1
   628 ;; This function calls:
   629 ;;		Nothing
   630 ;; This function is called by:
   631 ;;		_LCD_Init
   632 ;;		_main
   633 ;; This function uses a non-reentrant model
   634 ;;
   635                           
   636                           	psect	text4
   637   000956                     __ptext4:
   638                           	callstack 0
   639   000956                     _LCD_Command:
   640                           	callstack 29
   641                           
   642                           ;incstack = 0
   643                           ;LCD_Command@cmd stored from wreg
   644   000956  6E0F               	movwf	LCD_Command@cmd^0,c
   645   000958                     
   646                           ;../PIC18F_Library/LCD.c: 32: void LCD_Command(unsigned char cmd);../PIC18F_Library/LCD.
      +                          c: 33: {;../PIC18F_Library/LCD.c: 34:     LATD = cmd;
   647   000958  C00F  FF8C         	movff	LCD_Command@cmd,3980	;volatile
   648   00095C                     
   649                           ;../PIC18F_Library/LCD.c: 35:     LATCbits.LATC1 = 0;
   650   00095C  928B               	bcf	139,1,c	;volatile
   651   00095E                     
   652                           ;../PIC18F_Library/LCD.c: 36:     LATCbits.LATC0 = 0;
   653   00095E  908B               	bcf	139,0,c	;volatile
   654   000960                     
   655                           ;../PIC18F_Library/LCD.c: 37:     LATCbits.LATC2 = 1;
   656   000960  848B               	bsf	139,2,c	;volatile
   657   000962                     
   658                           ;../PIC18F_Library/LCD.c: 38:     _delay((unsigned long)((15)*(20000000/4000.0)));
   659   000962  0E62               	movlw	98
   660   000964  6E0E               	movwf	??_LCD_Command^0,c
   661   000966  0E66               	movlw	102
   662   000968                     u287:
   663   000968  2EE8               	decfsz	wreg,f,c
   664   00096A  D7FE               	bra	u287
   665   00096C  2E0E               	decfsz	??_LCD_Command^0,f,c
   666   00096E  D7FC               	bra	u287
   667   000970                     
   668                           ;../PIC18F_Library/LCD.c: 39:     LATCbits.LATC2 = 0;
   669   000970  948B               	bcf	139,2,c	;volatile
   670   000972  0012               	return		;funcret
   671   000974                     __end_of_LCD_Command:
   672                           	callstack 0
   673                           
   674 ;; *************** function _Keypad_Init *****************
   675 ;; Defined at:
   676 ;;		line 4 in file "../PIC18F_Library/Keypad.c"
   677 ;; Parameters:    Size  Location     Type
   678 ;;		None
   679 ;; Auto vars:     Size  Location     Type
   680 ;;		None
   681 ;; Return value:  Size  Location     Type
   682 ;;                  1    wreg      void 
   683 ;; Registers used:
   684 ;;		wreg, status,2
   685 ;; Tracked objects:
   686 ;;		On entry : 0/0
   687 ;;		On exit  : 0/0
   688 ;;		Unchanged: 0/0
   689 ;; Data sizes:     COMRAM   BANK0   BANK1   BANK2   BANK3   BANK4   BANK5
   690 ;;      Params:         0       0       0       0       0       0       0
   691 ;;      Locals:         0       0       0       0       0       0       0
   692 ;;      Temps:          0       0       0       0       0       0       0
   693 ;;      Totals:         0       0       0       0       0       0       0
   694 ;;Total ram usage:        0 bytes
   695 ;; Hardware stack levels used: 1
   696 ;; This function calls:
   697 ;;		Nothing
   698 ;; This function is called by:
   699 ;;		_main
   700 ;; This function uses a non-reentrant model
   701 ;;
   702                           
   703                           	psect	text5
   704   000982                     __ptext5:
   705                           	callstack 0
   706   000982                     _Keypad_Init:
   707                           	callstack 30
   708   000982                     
   709                           ;../PIC18F_Library/Keypad.c: 6:     ADCON1 = 0x0F;
   710   000982  0E0F               	movlw	15
   711   000984  6EC1               	movwf	193,c	;volatile
   712   000986                     
   713                           ;../PIC18F_Library/Keypad.c: 7:     INTCON2bits.RBPU=0;
   714   000986  9EF1               	bcf	241,7,c	;volatile
   715                           
   716                           ;../PIC18F_Library/Keypad.c: 8:     TRISB = 0x1F;
   717   000988  0E1F               	movlw	31
   718   00098A  6E93               	movwf	147,c	;volatile
   719   00098C  0012               	return		;funcret
   720   00098E                     __end_of_Keypad_Init:
   721                           	callstack 0
   722                           
   723 ;; *************** function _Get_Key *****************
   724 ;; Defined at:
   725 ;;		line 53 in file "../PIC18F_Library/Keypad.c"
   726 ;; Parameters:    Size  Location     Type
   727 ;;		None
   728 ;; Auto vars:     Size  Location     Type
   729 ;;  but1            1    4[COMRAM] unsigned char 
   730 ;;  Key             1    3[COMRAM] unsigned char 
   731 ;;  but2            1    0        unsigned char 
   732 ;; Return value:  Size  Location     Type
   733 ;;                  1    wreg      unsigned char 
   734 ;; Registers used:
   735 ;;		wreg, fsr2l, fsr2h, status,2, status,0, cstack
   736 ;; Tracked objects:
   737 ;;		On entry : 0/0
   738 ;;		On exit  : 0/0
   739 ;;		Unchanged: 0/0
   740 ;; Data sizes:     COMRAM   BANK0   BANK1   BANK2   BANK3   BANK4   BANK5
   741 ;;      Params:         0       0       0       0       0       0       0
   742 ;;      Locals:         2       0       0       0       0       0       0
   743 ;;      Temps:          2       0       0       0       0       0       0
   744 ;;      Totals:         4       0       0       0       0       0       0
   745 ;;Total ram usage:        4 bytes
   746 ;; Hardware stack levels used: 1
   747 ;; Hardware stack levels required when called: 1
   748 ;; This function calls:
   749 ;;		_Keypad_Scan
   750 ;; This function is called by:
   751 ;;		_main
   752 ;; This function uses a non-reentrant model
   753 ;;
   754                           
   755                           	psect	text6
   756   0008D6                     __ptext6:
   757                           	callstack 0
   758   0008D6                     _Get_Key:
   759                           	callstack 29
   760   0008D6                     
   761                           ;../PIC18F_Library/Keypad.c: 55:     unsigned char but1, but2, Key;;../PIC18F_Library/Ke
      +                          ypad.c: 56:  but1 = Keypad_Scan();
   762   0008D6  EC10  F003         	call	_Keypad_Scan	;wreg free
   763   0008DA  6E12               	movwf	Get_Key@but1^0,c
   764   0008DC                     
   765                           ;../PIC18F_Library/Keypad.c: 57:     _delay((unsigned long)((50)*(20000000/4000.0)));
   766   0008DC  0E02               	movlw	2
   767   0008DE  6E10               	movwf	(??_Get_Key+1)^0,c
   768   0008E0  0E45               	movlw	69
   769   0008E2  6E0F               	movwf	??_Get_Key^0,c
   770   0008E4  0EAA               	movlw	170
   771   0008E6                     u297:
   772   0008E6  2EE8               	decfsz	wreg,f,c
   773   0008E8  D7FE               	bra	u297
   774   0008EA  2E0F               	decfsz	??_Get_Key^0,f,c
   775   0008EC  D7FC               	bra	u297
   776   0008EE  2E10               	decfsz	(??_Get_Key+1)^0,f,c
   777   0008F0  D7FA               	bra	u297
   778   0008F2  EC10  F003         	call	_Keypad_Scan	;wreg free
   779   0008F6                     
   780                           ;../PIC18F_Library/Keypad.c: 61:     {;../PIC18F_Library/Keypad.c: 62:         Key = Key
      +                          Val[but1];
   781   0008F6  0E01               	movlw	low _KeyVal
   782   0008F8  2412               	addwf	Get_Key@but1^0,w,c
   783   0008FA  6ED9               	movwf	fsr2l,c
   784   0008FC  6ADA               	clrf	fsr2h,c
   785   0008FE  0E00               	movlw	high _KeyVal
   786   000900  22DA               	addwfc	fsr2h,f,c
   787   000902  50DF               	movf	indf2,w,c
   788   000904  6E11               	movwf	Get_Key@Key^0,c
   789   000906                     
   790                           ;../PIC18F_Library/Keypad.c: 63:         return(Key);
   791   000906  5011               	movf	Get_Key@Key^0,w,c
   792   000908  0012               	return		;funcret
   793   00090A                     __end_of_Get_Key:
   794                           	callstack 0
   795                           
   796 ;; *************** function _Keypad_Scan *****************
   797 ;; Defined at:
   798 ;;		line 10 in file "../PIC18F_Library/Keypad.c"
   799 ;; Parameters:    Size  Location     Type
   800 ;;		None
   801 ;; Auto vars:     Size  Location     Type
   802 ;;  button          1    0[COMRAM] unsigned char 
   803 ;; Return value:  Size  Location     Type
   804 ;;                  1    wreg      unsigned char 
   805 ;; Registers used:
   806 ;;		wreg, status,2, status,0
   807 ;; Tracked objects:
   808 ;;		On entry : 0/0
   809 ;;		On exit  : 0/0
   810 ;;		Unchanged: 0/0
   811 ;; Data sizes:     COMRAM   BANK0   BANK1   BANK2   BANK3   BANK4   BANK5
   812 ;;      Params:         0       0       0       0       0       0       0
   813 ;;      Locals:         1       0       0       0       0       0       0
   814 ;;      Temps:          0       0       0       0       0       0       0
   815 ;;      Totals:         1       0       0       0       0       0       0
   816 ;;Total ram usage:        1 bytes
   817 ;; Hardware stack levels used: 1
   818 ;; This function calls:
   819 ;;		Nothing
   820 ;; This function is called by:
   821 ;;		_Get_Key
   822 ;; This function uses a non-reentrant model
   823 ;;
   824                           
   825                           	psect	text7
   826   000620                     __ptext7:
   827                           	callstack 0
   828   000620                     _Keypad_Scan:
   829                           	callstack 29
   830   000620                     
   831                           ;../PIC18F_Library/Keypad.c: 12:     unsigned char button = 0;
   832   000620  0E00               	movlw	0
   833   000622  6E0E               	movwf	Keypad_Scan@button^0,c
   834                           
   835                           ;../PIC18F_Library/Keypad.c: 15:     LATB = 0xC0;
   836   000624  0EC0               	movlw	192
   837   000626  6E8A               	movwf	138,c	;volatile
   838   000628                     
   839                           ;../PIC18F_Library/Keypad.c: 16:     _delay((unsigned long)((1)*(20000000/4000000.0)));
   840   000628  D000               	nop2		;2 cycle nop
   841   00062A  D000               	nop2		;2 cycle nop
   842   00062C  F000               	nop	
   843   00062E                     
   844                           ;../PIC18F_Library/Keypad.c: 17:  if ((PORTB & 0x1E) != 0x1E)
   845   00062E  5081               	movf	129,w,c	;volatile
   846   000630  0B1E               	andlw	30
   847   000632  0A1E               	xorlw	30
   848   000634  B4D8               	btfsc	status,2,c
   849   000636  EF1F  F003         	goto	u11
   850   00063A  EF21  F003         	goto	u10
   851   00063E                     u11:
   852   00063E  EF54  F003         	goto	l826
   853   000642                     u10:
   854   000642                     
   855                           ;../PIC18F_Library/Keypad.c: 18:     {;../PIC18F_Library/Keypad.c: 19:         if((PORTB
      +                           & 0x1E) == 0x1C) button = 1;
   856   000642  5081               	movf	129,w,c	;volatile
   857   000644  0B1E               	andlw	30
   858   000646  0A1C               	xorlw	28
   859   000648  A4D8               	btfss	status,2,c
   860   00064A  EF29  F003         	goto	u21
   861   00064E  EF2B  F003         	goto	u20
   862   000652                     u21:
   863   000652  EF2D  F003         	goto	l812
   864   000656                     u20:
   865   000656  0E01               	movlw	1
   866   000658  6E0E               	movwf	Keypad_Scan@button^0,c
   867   00065A                     l812:
   868                           
   869                           ;../PIC18F_Library/Keypad.c: 20:         if((PORTB & 0x1E) == 0x1A) button = 2;
   870   00065A  5081               	movf	129,w,c	;volatile
   871   00065C  0B1E               	andlw	30
   872   00065E  0A1A               	xorlw	26
   873   000660  A4D8               	btfss	status,2,c
   874   000662  EF35  F003         	goto	u31
   875   000666  EF37  F003         	goto	u30
   876   00066A                     u31:
   877   00066A  EF39  F003         	goto	l816
   878   00066E                     u30:
   879   00066E  0E02               	movlw	2
   880   000670  6E0E               	movwf	Keypad_Scan@button^0,c
   881   000672                     l816:
   882                           
   883                           ;../PIC18F_Library/Keypad.c: 21:         if((PORTB & 0x1E) == 0x16) button = 3;
   884   000672  5081               	movf	129,w,c	;volatile
   885   000674  0B1E               	andlw	30
   886   000676  0A16               	xorlw	22
   887   000678  A4D8               	btfss	status,2,c
   888   00067A  EF41  F003         	goto	u41
   889   00067E  EF43  F003         	goto	u40
   890   000682                     u41:
   891   000682  EF45  F003         	goto	l820
   892   000686                     u40:
   893   000686  0E03               	movlw	3
   894   000688  6E0E               	movwf	Keypad_Scan@button^0,c
   895   00068A                     l820:
   896                           
   897                           ;../PIC18F_Library/Keypad.c: 22:         if((PORTB & 0x1E) == 0x0E) button = 4;
   898   00068A  5081               	movf	129,w,c	;volatile
   899   00068C  0B1E               	andlw	30
   900   00068E  0A0E               	xorlw	14
   901   000690  A4D8               	btfss	status,2,c
   902   000692  EF4D  F003         	goto	u51
   903   000696  EF4F  F003         	goto	u50
   904   00069A                     u51:
   905   00069A  EF51  F003         	goto	l57
   906   00069E                     u50:
   907   00069E  0E04               	movlw	4
   908   0006A0  6E0E               	movwf	Keypad_Scan@button^0,c
   909   0006A2                     l57:
   910                           
   911                           ;../PIC18F_Library/Keypad.c: 23:         return button;
   912   0006A2  500E               	movf	Keypad_Scan@button^0,w,c
   913   0006A4  EFD7  F003         	goto	l58
   914   0006A8                     l826:
   915                           
   916                           ;../PIC18F_Library/Keypad.c: 27:     LATB = 0xA0;
   917   0006A8  0EA0               	movlw	160
   918   0006AA  6E8A               	movwf	138,c	;volatile
   919   0006AC                     
   920                           ;../PIC18F_Library/Keypad.c: 28:     _delay((unsigned long)((1)*(20000000/4000000.0)));
   921   0006AC  D000               	nop2		;2 cycle nop
   922   0006AE  D000               	nop2		;2 cycle nop
   923   0006B0  F000               	nop	
   924   0006B2                     
   925                           ;../PIC18F_Library/Keypad.c: 29:     if ((PORTB & 0x1E) != 0x1E)
   926   0006B2  5081               	movf	129,w,c	;volatile
   927   0006B4  0B1E               	andlw	30
   928   0006B6  0A1E               	xorlw	30
   929   0006B8  B4D8               	btfsc	status,2,c
   930   0006BA  EF61  F003         	goto	u61
   931   0006BE  EF63  F003         	goto	u60
   932   0006C2                     u61:
   933   0006C2  EF95  F003         	goto	l850
   934   0006C6                     u60:
   935   0006C6                     
   936                           ;../PIC18F_Library/Keypad.c: 30:     {;../PIC18F_Library/Keypad.c: 31:         if((PORTB
      +                           & 0x1E) == 0x1C) button = 5;
   937   0006C6  5081               	movf	129,w,c	;volatile
   938   0006C8  0B1E               	andlw	30
   939   0006CA  0A1C               	xorlw	28
   940   0006CC  A4D8               	btfss	status,2,c
   941   0006CE  EF6B  F003         	goto	u71
   942   0006D2  EF6D  F003         	goto	u70
   943   0006D6                     u71:
   944   0006D6  EF6F  F003         	goto	l836
   945   0006DA                     u70:
   946   0006DA  0E05               	movlw	5
   947   0006DC  6E0E               	movwf	Keypad_Scan@button^0,c
   948   0006DE                     l836:
   949                           
   950                           ;../PIC18F_Library/Keypad.c: 32:         if((PORTB & 0x1E) == 0x1A) button = 6;
   951   0006DE  5081               	movf	129,w,c	;volatile
   952   0006E0  0B1E               	andlw	30
   953   0006E2  0A1A               	xorlw	26
   954   0006E4  A4D8               	btfss	status,2,c
   955   0006E6  EF77  F003         	goto	u81
   956   0006EA  EF79  F003         	goto	u80
   957   0006EE                     u81:
   958   0006EE  EF7B  F003         	goto	l840
   959   0006F2                     u80:
   960   0006F2  0E06               	movlw	6
   961   0006F4  6E0E               	movwf	Keypad_Scan@button^0,c
   962   0006F6                     l840:
   963                           
   964                           ;../PIC18F_Library/Keypad.c: 33:         if((PORTB & 0x1E) == 0x16) button = 7;
   965   0006F6  5081               	movf	129,w,c	;volatile
   966   0006F8  0B1E               	andlw	30
   967   0006FA  0A16               	xorlw	22
   968   0006FC  A4D8               	btfss	status,2,c
   969   0006FE  EF83  F003         	goto	u91
   970   000702  EF85  F003         	goto	u90
   971   000706                     u91:
   972   000706  EF87  F003         	goto	l844
   973   00070A                     u90:
   974   00070A  0E07               	movlw	7
   975   00070C  6E0E               	movwf	Keypad_Scan@button^0,c
   976   00070E                     l844:
   977                           
   978                           ;../PIC18F_Library/Keypad.c: 34:         if((PORTB & 0x1E) == 0x0E) button = 8;
   979   00070E  5081               	movf	129,w,c	;volatile
   980   000710  0B1E               	andlw	30
   981   000712  0A0E               	xorlw	14
   982   000714  A4D8               	btfss	status,2,c
   983   000716  EF8F  F003         	goto	u101
   984   00071A  EF91  F003         	goto	u100
   985   00071E                     u101:
   986   00071E  EF51  F003         	goto	l57
   987   000722                     u100:
   988   000722  0E08               	movlw	8
   989   000724  6E0E               	movwf	Keypad_Scan@button^0,c
   990   000726  EF51  F003         	goto	l57
   991   00072A                     l850:
   992                           
   993                           ;../PIC18F_Library/Keypad.c: 39:     LATB = 0x60;
   994   00072A  0E60               	movlw	96
   995   00072C  6E8A               	movwf	138,c	;volatile
   996   00072E                     
   997                           ;../PIC18F_Library/Keypad.c: 40:     _delay((unsigned long)((1)*(20000000/4000000.0)));
   998   00072E  D000               	nop2		;2 cycle nop
   999   000730  D000               	nop2		;2 cycle nop
  1000   000732  F000               	nop	
  1001   000734                     
  1002                           ;../PIC18F_Library/Keypad.c: 41:     if ((PORTB & 0x1E) != 0x1E)
  1003   000734  5081               	movf	129,w,c	;volatile
  1004   000736  0B1E               	andlw	30
  1005   000738  0A1E               	xorlw	30
  1006   00073A  B4D8               	btfsc	status,2,c
  1007   00073C  EFA2  F003         	goto	u111
  1008   000740  EFA4  F003         	goto	u110
  1009   000744                     u111:
  1010   000744  EFD6  F003         	goto	l874
  1011   000748                     u110:
  1012   000748                     
  1013                           ;../PIC18F_Library/Keypad.c: 42:     {;../PIC18F_Library/Keypad.c: 43:         if((PORTB
      +                           & 0x1E) == 0x1C) button = 9;
  1014   000748  5081               	movf	129,w,c	;volatile
  1015   00074A  0B1E               	andlw	30
  1016   00074C  0A1C               	xorlw	28
  1017   00074E  A4D8               	btfss	status,2,c
  1018   000750  EFAC  F003         	goto	u121
  1019   000754  EFAE  F003         	goto	u120
  1020   000758                     u121:
  1021   000758  EFB0  F003         	goto	l860
  1022   00075C                     u120:
  1023   00075C  0E09               	movlw	9
  1024   00075E  6E0E               	movwf	Keypad_Scan@button^0,c
  1025   000760                     l860:
  1026                           
  1027                           ;../PIC18F_Library/Keypad.c: 44:         if((PORTB & 0x1E) == 0x1A) button = 10;
  1028   000760  5081               	movf	129,w,c	;volatile
  1029   000762  0B1E               	andlw	30
  1030   000764  0A1A               	xorlw	26
  1031   000766  A4D8               	btfss	status,2,c
  1032   000768  EFB8  F003         	goto	u131
  1033   00076C  EFBA  F003         	goto	u130
  1034   000770                     u131:
  1035   000770  EFBC  F003         	goto	l864
  1036   000774                     u130:
  1037   000774  0E0A               	movlw	10
  1038   000776  6E0E               	movwf	Keypad_Scan@button^0,c
  1039   000778                     l864:
  1040                           
  1041                           ;../PIC18F_Library/Keypad.c: 45:         if((PORTB & 0x1E) == 0x16) button = 11;
  1042   000778  5081               	movf	129,w,c	;volatile
  1043   00077A  0B1E               	andlw	30
  1044   00077C  0A16               	xorlw	22
  1045   00077E  A4D8               	btfss	status,2,c
  1046   000780  EFC4  F003         	goto	u141
  1047   000784  EFC6  F003         	goto	u140
  1048   000788                     u141:
  1049   000788  EFC8  F003         	goto	l868
  1050   00078C                     u140:
  1051   00078C  0E0B               	movlw	11
  1052   00078E  6E0E               	movwf	Keypad_Scan@button^0,c
  1053   000790                     l868:
  1054                           
  1055                           ;../PIC18F_Library/Keypad.c: 46:         if((PORTB & 0x1E) == 0x0E) button = 12;
  1056   000790  5081               	movf	129,w,c	;volatile
  1057   000792  0B1E               	andlw	30
  1058   000794  0A0E               	xorlw	14
  1059   000796  A4D8               	btfss	status,2,c
  1060   000798  EFD0  F003         	goto	u151
  1061   00079C  EFD2  F003         	goto	u150
  1062   0007A0                     u151:
  1063   0007A0  EF51  F003         	goto	l57
  1064   0007A4                     u150:
  1065   0007A4  0E0C               	movlw	12
  1066   0007A6  6E0E               	movwf	Keypad_Scan@button^0,c
  1067   0007A8  EF51  F003         	goto	l57
  1068   0007AC                     l874:
  1069                           
  1070                           ;../PIC18F_Library/Keypad.c: 49:     return button;
  1071   0007AC  0E00               	movlw	0
  1072   0007AE                     l58:
  1073   0007AE  0012               	return		;funcret
  1074   0007B0                     __end_of_Keypad_Scan:
  1075                           	callstack 0
  1076                           
  1077                           	psect	rparam
  1078   000000                     
  1079                           	psect	idloc
  1080                           
  1081                           ;Config register IDLOC0 @ 0x200000
  1082                           ;	unspecified, using default values
  1083   200000                     	org	2097152
  1084   200000  FF                 	db	255
  1085                           
  1086                           ;Config register IDLOC1 @ 0x200001
  1087                           ;	unspecified, using default values
  1088   200001                     	org	2097153
  1089   200001  FF                 	db	255
  1090                           
  1091                           ;Config register IDLOC2 @ 0x200002
  1092                           ;	unspecified, using default values
  1093   200002                     	org	2097154
  1094   200002  FF                 	db	255
  1095                           
  1096                           ;Config register IDLOC3 @ 0x200003
  1097                           ;	unspecified, using default values
  1098   200003                     	org	2097155
  1099   200003  FF                 	db	255
  1100                           
  1101                           ;Config register IDLOC4 @ 0x200004
  1102                           ;	unspecified, using default values
  1103   200004                     	org	2097156
  1104   200004  FF                 	db	255
  1105                           
  1106                           ;Config register IDLOC5 @ 0x200005
  1107                           ;	unspecified, using default values
  1108   200005                     	org	2097157
  1109   200005  FF                 	db	255
  1110                           
  1111                           ;Config register IDLOC6 @ 0x200006
  1112                           ;	unspecified, using default values
  1113   200006                     	org	2097158
  1114   200006  FF                 	db	255
  1115                           
  1116                           ;Config register IDLOC7 @ 0x200007
  1117                           ;	unspecified, using default values
  1118   200007                     	org	2097159
  1119   200007  FF                 	db	255
  1120                           
  1121                           	psect	config
  1122                           
  1123                           ; Padding undefined space
  1124   300000                     	org	3145728
  1125   300000  FF                 	db	255
  1126                           
  1127                           ;Config register CONFIG1H @ 0x300001
  1128                           ;	Oscillator Selection bits
  1129                           ;	OSC = HS, HS oscillator
  1130                           ;	Fail-Safe Clock Monitor Enable bit
  1131                           ;	FCMEN = OFF, Fail-Safe Clock Monitor disabled
  1132                           ;	Internal/External Oscillator Switchover bit
  1133                           ;	IESO = OFF, Oscillator Switchover mode disabled
  1134   300001                     	org	3145729
  1135   300001  02                 	db	2
  1136                           
  1137                           ;Config register CONFIG2L @ 0x300002
  1138                           ;	Power-up Timer Enable bit
  1139                           ;	PWRT = OFF, PWRT disabled
  1140                           ;	Brown-out Reset Enable bits
  1141                           ;	BOREN = SBORDIS, Brown-out Reset enabled in hardware only (SBOREN is disabled)
  1142                           ;	Brown Out Reset Voltage bits
  1143                           ;	BORV = 3, Minimum setting
  1144   300002                     	org	3145730
  1145   300002  1F                 	db	31
  1146                           
  1147                           ;Config register CONFIG2H @ 0x300003
  1148                           ;	Watchdog Timer Enable bit
  1149                           ;	WDT = ON, WDT enabled
  1150                           ;	Watchdog Timer Postscale Select bits
  1151                           ;	WDTPS = 32768, 1:32768
  1152   300003                     	org	3145731
  1153   300003  1F                 	db	31
  1154                           
  1155                           ; Padding undefined space
  1156   300004                     	org	3145732
  1157   300004  FF                 	db	255
  1158                           
  1159                           ;Config register CONFIG3H @ 0x300005
  1160                           ;	CCP2 MUX bit
  1161                           ;	CCP2MX = PORTC, CCP2 input/output is multiplexed with RC1
  1162                           ;	PORTB A/D Enable bit
  1163                           ;	PBADEN = OFF, PORTB<4:0> pins are configured as digital I/O on Reset
  1164                           ;	Low-Power Timer1 Oscillator Enable bit
  1165                           ;	LPT1OSC = OFF, Timer1 configured for higher power operation
  1166                           ;	MCLR Pin Enable bit
  1167                           ;	MCLRE = ON, MCLR pin enabled; RE3 input pin disabled
  1168   300005                     	org	3145733
  1169   300005  81                 	db	129
  1170                           
  1171                           ;Config register CONFIG4L @ 0x300006
  1172                           ;	Stack Full/Underflow Reset Enable bit
  1173                           ;	STVREN = ON, Stack full/underflow will cause Reset
  1174                           ;	Single-Supply ICSP Enable bit
  1175                           ;	LVP = OFF, Single-Supply ICSP disabled
  1176                           ;	Extended Instruction Set Enable bit
  1177                           ;	XINST = OFF, Instruction set extension and Indexed Addressing mode disabled (Legacy mo
      +                          de)
  1178                           ;	Background Debugger Enable bit
  1179                           ;	DEBUG = 0x1, unprogrammed default
  1180   300006                     	org	3145734
  1181   300006  81                 	db	129
  1182                           
  1183                           ; Padding undefined space
  1184   300007                     	org	3145735
  1185   300007  FF                 	db	255
  1186                           
  1187                           ;Config register CONFIG5L @ 0x300008
  1188                           ;	Code Protection bit
  1189                           ;	CP0 = OFF, Block 0 (000800-001FFFh) not code-protected
  1190                           ;	Code Protection bit
  1191                           ;	CP1 = OFF, Block 1 (002000-003FFFh) not code-protected
  1192                           ;	Code Protection bit
  1193                           ;	CP2 = OFF, Block 2 (004000-005FFFh) not code-protected
  1194                           ;	Code Protection bit
  1195                           ;	CP3 = OFF, Block 3 (006000-007FFFh) not code-protected
  1196   300008                     	org	3145736
  1197   300008  0F                 	db	15
  1198                           
  1199                           ;Config register CONFIG5H @ 0x300009
  1200                           ;	Boot Block Code Protection bit
  1201                           ;	CPB = OFF, Boot block (000000-0007FFh) not code-protected
  1202                           ;	Data EEPROM Code Protection bit
  1203                           ;	CPD = OFF, Data EEPROM not code-protected
  1204   300009                     	org	3145737
  1205   300009  C0                 	db	192
  1206                           
  1207                           ;Config register CONFIG6L @ 0x30000A
  1208                           ;	Write Protection bit
  1209                           ;	WRT0 = OFF, Block 0 (000800-001FFFh) not write-protected
  1210                           ;	Write Protection bit
  1211                           ;	WRT1 = OFF, Block 1 (002000-003FFFh) not write-protected
  1212                           ;	Write Protection bit
  1213                           ;	WRT2 = OFF, Block 2 (004000-005FFFh) not write-protected
  1214                           ;	Write Protection bit
  1215                           ;	WRT3 = OFF, Block 3 (006000-007FFFh) not write-protected
  1216   30000A                     	org	3145738
  1217   30000A  0F                 	db	15
  1218                           
  1219                           ;Config register CONFIG6H @ 0x30000B
  1220                           ;	Configuration Register Write Protection bit
  1221                           ;	WRTC = OFF, Configuration registers (300000-3000FFh) not write-protected
  1222                           ;	Boot Block Write Protection bit
  1223                           ;	WRTB = OFF, Boot block (000000-0007FFh) not write-protected
  1224                           ;	Data EEPROM Write Protection bit
  1225                           ;	WRTD = OFF, Data EEPROM not write-protected
  1226   30000B                     	org	3145739
  1227   30000B  E0                 	db	224
  1228                           
  1229                           ;Config register CONFIG7L @ 0x30000C
  1230                           ;	Table Read Protection bit
  1231                           ;	EBTR0 = OFF, Block 0 (000800-001FFFh) not protected from table reads executed in other
      +                           blocks
  1232                           ;	Table Read Protection bit
  1233                           ;	EBTR1 = OFF, Block 1 (002000-003FFFh) not protected from table reads executed in other
      +                           blocks
  1234                           ;	Table Read Protection bit
  1235                           ;	EBTR2 = OFF, Block 2 (004000-005FFFh) not protected from table reads executed in other
      +                           blocks
  1236                           ;	Table Read Protection bit
  1237                           ;	EBTR3 = OFF, Block 3 (006000-007FFFh) not protected from table reads executed in other
      +                           blocks
  1238   30000C                     	org	3145740
  1239   30000C  0F                 	db	15
  1240                           
  1241                           ;Config register CONFIG7H @ 0x30000D
  1242                           ;	Boot Block Table Read Protection bit
  1243                           ;	EBTRB = OFF, Boot block (000000-0007FFh) not protected from table reads executed in ot
      +                          her blocks
  1244   30000D                     	org	3145741
  1245   30000D  40                 	db	64
  1246                           tosu	equ	0xFFF
  1247                           tosh	equ	0xFFE
  1248                           tosl	equ	0xFFD
  1249                           stkptr	equ	0xFFC
  1250                           pclatu	equ	0xFFB
  1251                           pclath	equ	0xFFA
  1252                           pcl	equ	0xFF9
  1253                           tblptru	equ	0xFF8
  1254                           tblptrh	equ	0xFF7
  1255                           tblptrl	equ	0xFF6
  1256                           tablat	equ	0xFF5
  1257                           prodh	equ	0xFF4
  1258                           prodl	equ	0xFF3
  1259                           indf0	equ	0xFEF
  1260                           postinc0	equ	0xFEE
  1261                           postdec0	equ	0xFED
  1262                           preinc0	equ	0xFEC
  1263                           plusw0	equ	0xFEB
  1264                           fsr0h	equ	0xFEA
  1265                           fsr0l	equ	0xFE9
  1266                           wreg	equ	0xFE8
  1267                           indf1	equ	0xFE7
  1268                           postinc1	equ	0xFE6
  1269                           postdec1	equ	0xFE5
  1270                           preinc1	equ	0xFE4
  1271                           plusw1	equ	0xFE3
  1272                           fsr1h	equ	0xFE2
  1273                           fsr1l	equ	0xFE1
  1274                           bsr	equ	0xFE0
  1275                           indf2	equ	0xFDF
  1276                           postinc2	equ	0xFDE
  1277                           postdec2	equ	0xFDD
  1278                           preinc2	equ	0xFDC
  1279                           plusw2	equ	0xFDB
  1280                           fsr2h	equ	0xFDA
  1281                           fsr2l	equ	0xFD9
  1282                           status	equ	0xFD8

Data Sizes:
    Strings     0
    Constant    29
    Data        13
    BSS         0
    Persistent  0
    Stack       0

Auto Spaces:
    Space          Size  Autos    Used
    COMRAM          127      9      22
    BANK0           128      0       0
    BANK1           256      0       0
    BANK2           256      0       0
    BANK3           256      0       0
    BANK4           256      0       0
    BANK5           256      0       0

Pointer List with Targets:

    LCD_ROM_String@str	PTR const unsigned char  size(2) Largest target is 15
		 -> msg2(CODE[15]), msg1(CODE[14]), 


Critical Paths under _main in COMRAM

    _main->_LCD_ROM_String
    _LCD_ROM_String->_LCD_Data
    _LCD_Init->_LCD_Command
    _Get_Key->_Keypad_Scan

Critical Paths under _main in BANK0

    None.

Critical Paths under _main in BANK1

    None.

Critical Paths under _main in BANK2

    None.

Critical Paths under _main in BANK3

    None.

Critical Paths under _main in BANK4

    None.

Critical Paths under _main in BANK5

    None.

Call Graph Tables:

 ---------------------------------------------------------------------------------
 (Depth) Function   	        Calls       Base Space   Used Autos Params    Refs
 ---------------------------------------------------------------------------------
 (0) _main                                                 1     1      0     475
                                              8 COMRAM     1     1      0
                            _Get_Key
                        _Keypad_Init
                        _LCD_Command
                           _LCD_Data
                           _LCD_Init
                     _LCD_ROM_String
 ---------------------------------------------------------------------------------
 (1) _LCD_ROM_String                                       6     4      2     257
                                              2 COMRAM     6     4      2
                           _LCD_Data
 ---------------------------------------------------------------------------------
 (2) _LCD_Data                                             2     2      0      15
                                              0 COMRAM     2     2      0
 ---------------------------------------------------------------------------------
 (1) _LCD_Init                                             1     1      0      15
                                              2 COMRAM     1     1      0
                        _LCD_Command
 ---------------------------------------------------------------------------------
 (2) _LCD_Command                                          2     2      0      15
                                              0 COMRAM     2     2      0
 ---------------------------------------------------------------------------------
 (1) _Keypad_Init                                          0     0      0       0
 ---------------------------------------------------------------------------------
 (1) _Get_Key                                              5     5      0     150
                                              1 COMRAM     4     4      0
                        _Keypad_Scan
 ---------------------------------------------------------------------------------
 (2) _Keypad_Scan                                          1     1      0      60
                                              0 COMRAM     1     1      0
 ---------------------------------------------------------------------------------
 Estimated maximum stack depth 2
 ---------------------------------------------------------------------------------

 Call Graph Graphs:

 _main (ROOT)
   _Get_Key
     _Keypad_Scan
   _Keypad_Init
   _LCD_Command
   _LCD_Data
   _LCD_Init
     _LCD_Command
   _LCD_ROM_String
     _LCD_Data

 Address spaces:
Name               Size   Autos  Total    Cost      Usage
BIGRAM             5FF      0       0      23        0.0%
EEDATA             100      0       0       0        0.0%
BITBANK5           100      0       0      14        0.0%
BANK5              100      0       0      15        0.0%
BITBANK4           100      0       0      12        0.0%
BANK4              100      0       0      13        0.0%
BITBANK3           100      0       0      10        0.0%
BANK3              100      0       0      11        0.0%
BITBANK2           100      0       0       8        0.0%
BANK2              100      0       0       9        0.0%
BITBANK1           100      0       0       6        0.0%
BANK1              100      0       0       7        0.0%
BITBANK0            80      0       0       4        0.0%
BANK0               80      0       0       5        0.0%
BITCOMRAM           7F      0       0       0        0.0%
COMRAM              7F      9      16       1       17.3%
BITBIGSFRhhl        2F      0       0      17        0.0%
BITBIGSFRhl         2B      0       0      18        0.0%
BITBIGSFRhhh         E      0       0      16        0.0%
BITBIGSFRllh         8      0       0      20        0.0%
BITBIGSFRlh          6      0       0      19        0.0%
BITBIGSFRlll         1      0       0      21        0.0%
BIGSFR               0      0       0     200        0.0%
BITSFR               0      0       0     200        0.0%
SFR                  0      0       0     200        0.0%
STACK                0      0       0       2        0.0%
NULL                 0      0       0       0        0.0%
ABS                  0      0      16      22        0.0%
DATA                 0      0      16       3        0.0%
CODE                 0      0       0       0        0.0%


Microchip Technology PIC18 Macro Assembler V2.40 build 20220703182018 
Symbol Table                                                                                   Sat Dec 17 15:17:57 2022

           ?_LCD_Command 000E                       l21 0954                       l15 081E  
                     l33 0882                       l50 098C                       l18 0972  
                     l72 0908                       l57 06A2                       l58 07AE  
                     u10 0642                       u11 063E                       u20 0656  
                     u21 0652                       u30 066E                       u31 066A  
                     u40 0686                       u41 0682                       u50 069E  
                     u51 069A                       u60 06C6                       u61 06C2  
                     u70 06DA                       u71 06D6                       u80 06F2  
                     u81 06EE                       u90 070A                       u91 0706  
                    l800 0952                      l810 0656                      l802 0620  
                    l820 068A                      l812 065A                      l804 0628  
                    l900 07FC                      l830 06B2                      l822 069E  
                    l814 066E                      l806 062E                      l902 080A  
                    l840 06F6                      l832 06C6                      l816 0672  
                    l808 0642                      l920 08D6                      l904 0810  
                    l842 070A                      l834 06DA                      l850 072A  
                    l818 0686                      l826 06A8                      l930 0906  
                    l922 08DC                      l860 0760                      l852 072E  
                    l844 070E                      l836 06DE                      l828 06AC  
                    l924 08F2                      l916 0982                      l780 095C  
                    l870 07A4                      l862 0774                      l854 0734  
                    l846 0722                      l838 06F2                      l918 0986  
                    l782 095E                      l790 093A                      l864 0778  
                    l856 0748                      l928 08F6                      l784 0960  
                    l880 07B4                      l792 093E                      l866 078C  
                    l858 075C                      l874 07AC                      l786 0962  
                    l778 0958                      l890 07CE                      l882 07B6  
                    l794 0940                      l970 085A                      l962 0820  
                    l868 0790                      l788 0970                      l892 07D4  
                    l884 07B8                      l796 0942                      l964 082C  
                    l980 08C2                      l972 0884                      l894 07E2  
                    l886 07BA                      l878 07B0                      l798 0944  
                    l966 0848                      l974 088C                      l896 07E8  
                    l888 07C0                      l968 0856                      l976 0898  
                    l898 07F6                      l978 08AA                      u100 0722  
                    u101 071E                      u110 0748                      u111 0744  
                    u120 075C                      u200 08C2                      u121 0758  
                    u201 08BE                      u130 0774                      u131 0770  
                    u140 078C                      u141 0788                      u150 07A4  
                    u151 07A0                      u217 084E                      u227 094A  
                    u237 07C6                      u190 0882                      u247 07DA  
                    u191 087E                      u257 07EE                      u267 0802  
                    u277 0816                      u287 0968                      u297 08E6  
                    wreg 000FE8                     _LATB 000F8A                     _LATD 000F8C  
                   _main 0884                     _msg1 0610                     _msg2 0601  
                   indf2 000FDF                     fsr1l 000FE1                     fsr2l 000FD9  
                   start 0000          __end_of_Get_Key 090A             ___param_bank 000000  
       __end_of_LCD_Data 0956         __end_of_LCD_Init 0820             LCD_Data@data 000F  
                  ?_main 000E            ??_Keypad_Init 000E            ??_Keypad_Scan 000E  
                  _PORTB 000F81                    _TRISB 000F93                    _TRISD 000F95  
                  tablat 000FF5                    status 000FD8          __initialization 090A  
           __end_of_main 08D6             __end_of_msg1 061E             __end_of_msg2 0610  
      LCD_ROM_String@str 0010                   ??_main 0016            __activetblptr 000001  
                 _ADCON1 000FC1      __end_of_Keypad_Init 098E      __end_of_Keypad_Scan 07B0  
              ??_Get_Key 000F                   _KeyVal 0001                   isa$std 000001  
           __pdataCOMRAM 0001             __mediumconst 0000                   tblptrh 000FF7  
                 tblptrl 000FF6                   tblptru 000FF8         ??_LCD_ROM_String 0012  
              ?_LCD_Data 000E               __accesstop 0080  __end_of__initialization 092A  
              ?_LCD_Init 000E            ___rparam_used 000001           __pcstackCOMRAM 000E  
            _Keypad_Init 0982              _Keypad_Scan 0620               ??_LCD_Data 000E  
             ??_LCD_Init 0010                  _Get_Key 08D6                  __Hparam 0000  
                __Lparam 0000             __psmallconst 0600                  __pcinit 090A  
                __ramtop 0600                  __ptext0 0884                  __ptext1 0820  
                __ptext2 0938                  __ptext3 07B0                  __ptext4 0956  
                __ptext5 0982                  __ptext6 08D6                  __ptext7 0620  
                main@Key 0016     end_of_initialization 092A           LCD_Command@cmd 000F  
                postdec1 000FE5                  postinc0 000FEE                _TRISCbits 000F94  
        LCD_ROM_String@i 0014            ??_LCD_Command 000E            __pidataCOMRAM 0974  
           ?_Keypad_Init 000E             ?_Keypad_Scan 000E      start_initialization 090A  
    __end_of_LCD_Command 0974                 ?_Get_Key 000E              __smallconst 0600  
               _LCD_Data 0938                 _LCD_Init 07B0                 _LATCbits 000F8B  
            _LCD_Command 0956              _INTCON2bits 000FF1                copy_data0 091E  
               __Hrparam 0000                 __Lrparam 0000             __Lsmallconst 0600  
         _LCD_ROM_String 0820                 isa$xinst 000000              Get_Key@but1 0012  
 __end_of_LCD_ROM_String 0884               Get_Key@Key 0011          ?_LCD_ROM_String 0010  
      Keypad_Scan@button 000E  
